target datalayout = "e-m:e-p270:32:32-p271:32:32-p272:64:64-i64:64-i128:128-f80:128-n8:16:32:64-S128"
target triple = "x86_64-pc-linux-gnu"

%"class.cv::ml::ParamGrid" = type { double, double, double }

@.str = private unnamed_addr constant [20 x i8] c"SVM::getDefaultGrid\00", align 1
@.str.1 = private unnamed_addr constant [65 x i8] c"Invalid type of parameter (use one of SVM::C, SVM::GAMMA et al.)\00", align 1
@.str.2 = private unnamed_addr constant [114 x i8] c"generated/home/dtcxzyw/WorkSpace/Projects/compilers/llvm-opt-benchmark/bench/opencv/opencv/modules/ml/src/svm.cpp\00", align 1

; Function Attrs: mustprogress uwtable
define void @_ZN2cv2ml3SVM14getDefaultGridEi(ptr dead_on_unwind noalias writable sret(%"class.cv::ml::ParamGrid") align 8 %0, i32 noundef %1) #4 align 2 {
  %3 = alloca i32, align 4
  store i32 %1, ptr %3, align 4, !tbaa !3
  call void @_ZN2cv2ml9ParamGridC1Ev(ptr noundef nonnull align 8 dereferenceable(24) %0)
  %4 = load i32, ptr %3, align 4, !tbaa !3
  %5 = icmp eq i32 %4, 0
  br i1 %5, label %6, label %10

6:                                                ; preds = %2
  %7 = getelementptr inbounds nuw %"class.cv::ml::ParamGrid", ptr %0, i32 0, i32 0
  store double 1.000000e-01, ptr %7, align 8, !tbaa !7
  %8 = getelementptr inbounds nuw %"class.cv::ml::ParamGrid", ptr %0, i32 0, i32 1
  store double 5.000000e+02, ptr %8, align 8, !tbaa !10
  %9 = getelementptr inbounds nuw %"class.cv::ml::ParamGrid", ptr %0, i32 0, i32 2
  store double 5.000000e+00, ptr %9, align 8, !tbaa !11
  br label %51

10:                                               ; preds = %2
  %11 = load i32, ptr %3, align 4, !tbaa !3
  %12 = icmp eq i32 %11, 1
  br i1 %12, label %13, label %17

13:                                               ; preds = %10
  %14 = getelementptr inbounds nuw %"class.cv::ml::ParamGrid", ptr %0, i32 0, i32 0
  store double 1.000000e-05, ptr %14, align 8, !tbaa !7
  %15 = getelementptr inbounds nuw %"class.cv::ml::ParamGrid", ptr %0, i32 0, i32 1
  store double 6.000000e-01, ptr %15, align 8, !tbaa !10
  %16 = getelementptr inbounds nuw %"class.cv::ml::ParamGrid", ptr %0, i32 0, i32 2
  store double 1.500000e+01, ptr %16, align 8, !tbaa !11
  br label %50

17:                                               ; preds = %10
  %18 = load i32, ptr %3, align 4, !tbaa !3
  %19 = icmp eq i32 %18, 2
  br i1 %19, label %20, label %24

20:                                               ; preds = %17
  %21 = getelementptr inbounds nuw %"class.cv::ml::ParamGrid", ptr %0, i32 0, i32 0
  store double 1.000000e-02, ptr %21, align 8, !tbaa !7
  %22 = getelementptr inbounds nuw %"class.cv::ml::ParamGrid", ptr %0, i32 0, i32 1
  store double 1.000000e+02, ptr %22, align 8, !tbaa !10
  %23 = getelementptr inbounds nuw %"class.cv::ml::ParamGrid", ptr %0, i32 0, i32 2
  store double 7.000000e+00, ptr %23, align 8, !tbaa !11
  br label %49

24:                                               ; preds = %17
  %25 = load i32, ptr %3, align 4, !tbaa !3
  %26 = icmp eq i32 %25, 3
  br i1 %26, label %27, label %31

27:                                               ; preds = %24
  %28 = getelementptr inbounds nuw %"class.cv::ml::ParamGrid", ptr %0, i32 0, i32 0
  store double 1.000000e-02, ptr %28, align 8, !tbaa !7
  %29 = getelementptr inbounds nuw %"class.cv::ml::ParamGrid", ptr %0, i32 0, i32 1
  store double 2.000000e-01, ptr %29, align 8, !tbaa !10
  %30 = getelementptr inbounds nuw %"class.cv::ml::ParamGrid", ptr %0, i32 0, i32 2
  store double 3.000000e+00, ptr %30, align 8, !tbaa !11
  br label %48

31:                                               ; preds = %24
  %32 = load i32, ptr %3, align 4, !tbaa !3
  %33 = icmp eq i32 %32, 4
  br i1 %33, label %34, label %38

34:                                               ; preds = %31
  %35 = getelementptr inbounds nuw %"class.cv::ml::ParamGrid", ptr %0, i32 0, i32 0
  store double 1.000000e-01, ptr %35, align 8, !tbaa !7
  %36 = getelementptr inbounds nuw %"class.cv::ml::ParamGrid", ptr %0, i32 0, i32 1
  store double 3.000000e+02, ptr %36, align 8, !tbaa !10
  %37 = getelementptr inbounds nuw %"class.cv::ml::ParamGrid", ptr %0, i32 0, i32 2
  store double 1.400000e+01, ptr %37, align 8, !tbaa !11
  br label %47

38:                                               ; preds = %31
  %39 = load i32, ptr %3, align 4, !tbaa !3
  %40 = icmp eq i32 %39, 5
  br i1 %40, label %41, label %45

41:                                               ; preds = %38
  %42 = getelementptr inbounds nuw %"class.cv::ml::ParamGrid", ptr %0, i32 0, i32 0
  store double 1.000000e-02, ptr %42, align 8, !tbaa !7
  %43 = getelementptr inbounds nuw %"class.cv::ml::ParamGrid", ptr %0, i32 0, i32 1
  store double 4.000000e+00, ptr %43, align 8, !tbaa !10
  %44 = getelementptr inbounds nuw %"class.cv::ml::ParamGrid", ptr %0, i32 0, i32 2
  store double 7.000000e+00, ptr %44, align 8, !tbaa !11
  br label %46

45:                                               ; preds = %38
  call void @cvError(i32 noundef -5, ptr noundef @.str, ptr noundef @.str.1, ptr noundef @.str.2, i32 noundef 416)
  br label %46

46:                                               ; preds = %45, %41
  br label %47

47:                                               ; preds = %46, %34
  br label %48

48:                                               ; preds = %47, %27
  br label %49

49:                                               ; preds = %48, %20
  br label %50

50:                                               ; preds = %49, %13
  br label %51

51:                                               ; preds = %50, %6
  ret void
}