; Function Attrs: mustprogress uwtable
define void @_ZN2cv2ml3SVM14getDefaultGridEi(ptr dead_on_unwind noalias nonnull writable sret(%"class.cv::ml::ParamGrid") align 8 %0, i32 noundef %1) local_unnamed_addr #3 align 2 {
  tail call void @_ZN2cv2ml9ParamGridC1Ev(ptr noundef nonnull align 8 dereferenceable(24) %0)
  switch i32 %1, label %21 [
    i32 0, label %3
    i32 1, label %6
    i32 2, label %9
    i32 3, label %12
    i32 4, label %15
    i32 5, label %18
  ]

3:                                                ; preds = %2
  store double 1.000000e-01, ptr %0, align 8, !tbaa !3
  %4 = getelementptr inbounds nuw i8, ptr %0, i64 8
  store double 5.000000e+02, ptr %4, align 8, !tbaa !11
  %5 = getelementptr inbounds nuw i8, ptr %0, i64 16
  store double 5.000000e+00, ptr %5, align 8, !tbaa !12
  br label %22

6:                                                ; preds = %2
  store double 1.000000e-05, ptr %0, align 8, !tbaa !3
  %7 = getelementptr inbounds nuw i8, ptr %0, i64 8
  store double 6.000000e-01, ptr %7, align 8, !tbaa !11
  %8 = getelementptr inbounds nuw i8, ptr %0, i64 16
  store double 1.500000e+01, ptr %8, align 8, !tbaa !12
  br label %22

9:                                                ; preds = %2
  store double 1.000000e-02, ptr %0, align 8, !tbaa !3
  %10 = getelementptr inbounds nuw i8, ptr %0, i64 8
  store double 1.000000e+02, ptr %10, align 8, !tbaa !11
  %11 = getelementptr inbounds nuw i8, ptr %0, i64 16
  store double 7.000000e+00, ptr %11, align 8, !tbaa !12
  br label %22

12:                                               ; preds = %2
  store double 1.000000e-02, ptr %0, align 8, !tbaa !3
  %13 = getelementptr inbounds nuw i8, ptr %0, i64 8
  store double 2.000000e-01, ptr %13, align 8, !tbaa !11
  %14 = getelementptr inbounds nuw i8, ptr %0, i64 16
  store double 3.000000e+00, ptr %14, align 8, !tbaa !12
  br label %22

15:                                               ; preds = %2
  store double 1.000000e-01, ptr %0, align 8, !tbaa !3
  %16 = getelementptr inbounds nuw i8, ptr %0, i64 8
  store double 3.000000e+02, ptr %16, align 8, !tbaa !11
  %17 = getelementptr inbounds nuw i8, ptr %0, i64 16
  store double 1.400000e+01, ptr %17, align 8, !tbaa !12
  br label %22

18:                                               ; preds = %2
  store double 1.000000e-02, ptr %0, align 8, !tbaa !3
  %19 = getelementptr inbounds nuw i8, ptr %0, i64 8
  store double 4.000000e+00, ptr %19, align 8, !tbaa !11
  %20 = getelementptr inbounds nuw i8, ptr %0, i64 16
  store double 7.000000e+00, ptr %20, align 8, !tbaa !12
  br label %22

21:                                               ; preds = %2
  tail call void @cvError(i32 noundef -5, ptr noundef nonnull @.str, ptr noundef nonnull @.str.1, ptr noundef nonnull @.str.2, i32 noundef 416)
  br label %22

22:                                               ; preds = %6, %12, %18, %21, %15, %9, %3
  ret void
}